; Function Attrs: nounwind uwtable
define hidden void @timelib_posix_str_dtor(ptr noundef %0) local_unnamed_addr #0 {
  %2 = load ptr, ptr %0, align 8, !tbaa !4
  %.not = icmp eq ptr %2, null
  br i1 %.not, label %4, label %3

3:                                                ; preds = %1
  tail call void @_efree(ptr noundef nonnull %2) #8
  br label %4

4:                                                ; preds = %3, %1
  %5 = getelementptr inbounds nuw i8, ptr %0, i64 16
  %6 = load ptr, ptr %5, align 8, !tbaa !13
  %.not12 = icmp eq ptr %6, null
  br i1 %.not12, label %8, label %7

7:                                                ; preds = %4
  tail call void @_efree(ptr noundef nonnull %6) #8
  br label %8

8:                                                ; preds = %7, %4
  %9 = getelementptr inbounds nuw i8, ptr %0, i64 32
  %10 = load ptr, ptr %9, align 8, !tbaa !14
  %.not13 = icmp eq ptr %10, null
  br i1 %.not13, label %12, label %11

11:                                               ; preds = %8
  tail call void @_efree(ptr noundef nonnull %10) #8
  br label %12

12:                                               ; preds = %11, %8
  %13 = getelementptr inbounds nuw i8, ptr %0, i64 40
  %14 = load ptr, ptr %13, align 8, !tbaa !15
  %.not14 = icmp eq ptr %14, null
  br i1 %.not14, label %16, label %15

15:                                               ; preds = %12
  tail call void @_efree(ptr noundef nonnull %14) #8
  br label %16

16:                                               ; preds = %15, %12
  tail call void @_efree(ptr noundef nonnull %0) #8
  ret void
}